; Function Attrs: nounwind uwtable
define ptr @l___private_Lean_Meta_WHNF_0__Lean_Meta_getRecRuleFor(ptr noundef %0, ptr noundef %1) local_unnamed_addr #1 {
  %3 = tail call ptr @l_Lean_Expr_getAppFn(ptr noundef %1) #5
  %4 = ptrtoint ptr %3 to i64
  %5 = and i64 %4, 1
  %.not.i27 = icmp eq i64 %5, 0
  br i1 %.not.i27, label %lean_obj_tag.exit.thread, label %lean_obj_tag.exit

lean_obj_tag.exit:                                ; preds = %2
  %6 = and i64 %4, 8589934590
  %7 = icmp eq i64 %6, 8
  br i1 %7, label %10, label %lean_dec.exit17

lean_obj_tag.exit.thread:                         ; preds = %2
  %8 = getelementptr i8, ptr %3, i64 4
  %.val.i = load i32, ptr %8, align 4
  %.mask = and i32 %.val.i, -16777216
  %9 = icmp eq i32 %.mask, 67108864
  br i1 %9, label %10, label %.thread

10:                                               ; preds = %lean_obj_tag.exit.thread, %lean_obj_tag.exit
  %11 = getelementptr inbounds nuw i8, ptr %3, i64 8
  %12 = load ptr, ptr %11, align 8, !tbaa !12
  %13 = ptrtoint ptr %12 to i64
  %14 = and i64 %13, 1
  %.not34 = icmp eq i64 %14, 0
  br i1 %.not34, label %15, label %lean_inc.exit20

15:                                               ; preds = %10
  %.val.i28 = load i32, ptr %12, align 4, !tbaa !4
  %16 = icmp sgt i32 %.val.i28, 0
  br i1 %16, label %17, label %19, !prof !11

17:                                               ; preds = %15
  %18 = add nuw i32 %.val.i28, 1
  store i32 %18, ptr %12, align 4, !tbaa !4
  br label %lean_inc.exit20

19:                                               ; preds = %15
  %.not.i29 = icmp eq i32 %.val.i28, 0
  br i1 %.not.i29, label %lean_inc.exit20, label %20

20:                                               ; preds = %19
  tail call void @lean_inc_ref_cold(ptr noundef nonnull %12) #5
  br label %lean_inc.exit20

lean_inc.exit20:                                  ; preds = %20, %19, %17, %10
  br i1 %.not.i27, label %21, label %lean_dec.exit19

21:                                               ; preds = %lean_inc.exit20
  %22 = load i32, ptr %3, align 4, !tbaa !4
  %23 = icmp sgt i32 %22, 1
  br i1 %23, label %24, label %26, !prof !11

24:                                               ; preds = %21
  %25 = add nsw i32 %22, -1
  store i32 %25, ptr %3, align 4, !tbaa !4
  br label %lean_dec.exit19

26:                                               ; preds = %21
  %.not.i = icmp eq i32 %22, 0
  br i1 %.not.i, label %lean_dec.exit19, label %27

27:                                               ; preds = %26
  tail call void @lean_dec_ref_cold(ptr noundef nonnull %3) #5
  br label %lean_dec.exit19

lean_dec.exit19:                                  ; preds = %27, %26, %24, %lean_inc.exit20
  tail call void @lean_inc_heartbeat() #5
  %28 = tail call noalias ptr @mi_malloc_small(i64 noundef 32) #5
  %29 = icmp eq ptr %28, null
  br i1 %29, label %30, label %lean_alloc_closure.exit

30:                                               ; preds = %lean_dec.exit19
  tail call void @lean_internal_panic_out_of_memory() #4
  unreachable

lean_alloc_closure.exit:                          ; preds = %lean_dec.exit19
  %31 = getelementptr inbounds nuw i8, ptr %28, i64 4
  store i32 1, ptr %28, align 4, !tbaa !4
  store i32 -184549344, ptr %31, align 4
  %32 = getelementptr inbounds nuw i8, ptr %28, i64 8
  store ptr @l___private_Lean_Meta_WHNF_0__Lean_Meta_getRecRuleFor___lambda__1___boxed, ptr %32, align 8, !tbaa !12
  %33 = getelementptr inbounds nuw i8, ptr %28, i64 16
  store i16 2, ptr %33, align 8, !tbaa !14
  %34 = getelementptr inbounds nuw i8, ptr %28, i64 18
  store i16 1, ptr %34, align 2, !tbaa !14
  %35 = getelementptr inbounds nuw i8, ptr %28, i64 24
  store ptr %12, ptr %35, align 8, !tbaa !12
  %36 = getelementptr inbounds nuw i8, ptr %0, i64 56
  %37 = load ptr, ptr %36, align 8, !tbaa !12
  %38 = ptrtoint ptr %37 to i64
  %39 = and i64 %38, 1
  %.not36 = icmp eq i64 %39, 0
  br i1 %.not36, label %40, label %lean_inc.exit

40:                                               ; preds = %lean_alloc_closure.exit
  %.val.i30 = load i32, ptr %37, align 4, !tbaa !4
  %41 = icmp sgt i32 %.val.i30, 0
  br i1 %41, label %42, label %44, !prof !11

42:                                               ; preds = %40
  %43 = add nuw i32 %.val.i30, 1
  store i32 %43, ptr %37, align 4, !tbaa !4
  br label %lean_inc.exit

44:                                               ; preds = %40
  %.not.i31 = icmp eq i32 %.val.i30, 0
  br i1 %.not.i31, label %lean_inc.exit, label %45

45:                                               ; preds = %44
  tail call void @lean_inc_ref_cold(ptr noundef nonnull %37) #5
  br label %lean_inc.exit

lean_inc.exit:                                    ; preds = %45, %44, %42, %lean_alloc_closure.exit
  %46 = ptrtoint ptr %0 to i64
  %47 = and i64 %46, 1
  %.not37 = icmp eq i64 %47, 0
  br i1 %.not37, label %48, label %lean_dec.exit18

48:                                               ; preds = %lean_inc.exit
  %49 = load i32, ptr %0, align 4, !tbaa !4
  %50 = icmp sgt i32 %49, 1
  br i1 %50, label %51, label %53, !prof !11

51:                                               ; preds = %48
  %52 = add nsw i32 %49, -1
  store i32 %52, ptr %0, align 4, !tbaa !4
  br label %lean_dec.exit18

53:                                               ; preds = %48
  %.not.i21 = icmp eq i32 %49, 0
  br i1 %.not.i21, label %lean_dec.exit18, label %54

54:                                               ; preds = %53
  tail call void @lean_dec_ref_cold(ptr noundef nonnull %0) #5
  br label %lean_dec.exit18

lean_dec.exit18:                                  ; preds = %54, %53, %51, %lean_inc.exit
  %55 = tail call ptr @l_List_find_x3f___rarg(ptr noundef nonnull %28, ptr noundef %37) #5
  br label %lean_dec.exit

.thread:                                          ; preds = %lean_obj_tag.exit.thread
  %56 = load i32, ptr %3, align 4, !tbaa !4
  %57 = icmp sgt i32 %56, 1
  br i1 %57, label %58, label %60, !prof !11

58:                                               ; preds = %.thread
  %59 = add nsw i32 %56, -1
  store i32 %59, ptr %3, align 4, !tbaa !4
  br label %lean_dec.exit17

60:                                               ; preds = %.thread
  %.not.i23 = icmp eq i32 %56, 0
  br i1 %.not.i23, label %lean_dec.exit17, label %61

61:                                               ; preds = %60
  tail call void @lean_dec_ref_cold(ptr noundef nonnull %3) #5
  br label %lean_dec.exit17

lean_dec.exit17:                                  ; preds = %lean_obj_tag.exit, %61, %60, %58
  %62 = ptrtoint ptr %0 to i64
  %63 = and i64 %62, 1
  %.not = icmp eq i64 %63, 0
  br i1 %.not, label %64, label %lean_dec.exit

64:                                               ; preds = %lean_dec.exit17
  %65 = load i32, ptr %0, align 4, !tbaa !4
  %66 = icmp sgt i32 %65, 1
  br i1 %66, label %67, label %69, !prof !11

67:                                               ; preds = %64
  %68 = add nsw i32 %65, -1
  store i32 %68, ptr %0, align 4, !tbaa !4
  br label %lean_dec.exit

69:                                               ; preds = %64
  %.not.i25 = icmp eq i32 %65, 0
  br i1 %.not.i25, label %lean_dec.exit, label %70

70:                                               ; preds = %69
  tail call void @lean_dec_ref_cold(ptr noundef nonnull %0) #5
  br label %lean_dec.exit

lean_dec.exit:                                    ; preds = %lean_dec.exit17, %67, %69, %70, %lean_dec.exit18
  %.0 = phi ptr [ %55, %lean_dec.exit18 ], [ inttoptr (i64 1 to ptr), %70 ], [ inttoptr (i64 1 to ptr), %69 ], [ inttoptr (i64 1 to ptr), %67 ], [ inttoptr (i64 1 to ptr), %lean_dec.exit17 ]
  ret ptr %.0
}